target datalayout = "e-m:e-p270:32:32-p271:32:32-p272:64:64-i64:64-i128:128-f80:128-n8:16:32:64-S128"
target triple = "x86_64-pc-linux-gnu"

%"struct.llvm::ItaniumPartialDemangler" = type { ptr, ptr }

; Function Attrs: mustprogress nounwind uwtable
define dso_local void @_ZN4llvm23ItaniumPartialDemanglerD2Ev(ptr noundef nonnull align 8 dereferenceable(16) %0) unnamed_addr #0 align 2 {
  %2 = alloca ptr, align 8
  store ptr %0, ptr %2, align 8
  %3 = load ptr, ptr %2, align 8
  %4 = getelementptr inbounds nuw %"struct.llvm::ItaniumPartialDemangler", ptr %3, i32 0, i32 1
  %5 = load ptr, ptr %4, align 8
  %6 = icmp eq ptr %5, null
  br i1 %6, label %8, label %7

7:                                                ; preds = %1
  call void @_ZN4llvm16itanium_demangle14ManglingParserIN12_GLOBAL__N_116DefaultAllocatorEED2Ev(ptr noundef nonnull align 16 dereferenceable(4928) %5) #14
  call void @_ZdlPvm(ptr noundef %5, i64 noundef 4928) #16
  br label %8

8:                                                ; preds = %7, %1
  ret void
}