; Function Attrs: mustprogress nounwind uwtable
define dso_local void @_ZN4llvm23ItaniumPartialDemanglerD2Ev(ptr nocapture noundef nonnull readonly align 8 dereferenceable(16) %0) unnamed_addr #1 align 2 {
  %2 = getelementptr inbounds nuw i8, ptr %0, i64 8
  %3 = load ptr, ptr %2, align 8
  %4 = icmp eq ptr %3, null
  br i1 %4, label %6, label %5

5:                                                ; preds = %1
  tail call fastcc void @_ZN4llvm16itanium_demangle14ManglingParserIN12_GLOBAL__N_116DefaultAllocatorEED2Ev(ptr noundef nonnull align 16 dereferenceable(4928) %3) #20
  tail call void @_ZdlPvm(ptr noundef nonnull %3, i64 noundef 4928) #25
  br label %6

6:                                                ; preds = %5, %1
  ret void
}